target datalayout = "e-m:e-p270:32:32-p271:32:32-p272:64:64-i64:64-i128:128-f80:128-n8:16:32:64-S128"
target triple = "x86_64-pc-linux-gnu"

%struct.HashState = type { %struct.PlanState, ptr, ptr, ptr, i32, ptr, ptr, ptr }
%struct.PlanState = type { i32, ptr, ptr, ptr, ptr, ptr, ptr, ptr, ptr, ptr, ptr, ptr, ptr, ptr, ptr, ptr, ptr, ptr, i8, ptr, ptr, ptr, ptr, ptr, i8, i8, i8, i8, i8, i8, i8, i8 }
%struct.Plan = type { i32, i32, double, double, double, i32, i8, i8, i8, i32, ptr, ptr, ptr, ptr, ptr, ptr, ptr }
%struct.ParallelContext = type { %struct.dlist_node, i32, i32, i32, i32, ptr, ptr, ptr, %struct.shm_toc_estimator, ptr, ptr, ptr, ptr, i32, ptr }
%struct.dlist_node = type { ptr, ptr }
%struct.shm_toc_estimator = type { i64, i64 }
%struct.SharedHashInfo = type { i32, [0 x %struct.HashInstrumentation] }
%struct.HashInstrumentation = type { i32, i32, i32, i32, i64 }

; Function Attrs: nounwind uwtable
define dso_local void @ExecHashInitializeDSM(ptr noundef %0, ptr noundef %1) #0 {
  %3 = alloca ptr, align 8
  %4 = alloca ptr, align 8
  %5 = alloca i64, align 8
  %6 = alloca i32, align 4
  store ptr %0, ptr %3, align 8
  store ptr %1, ptr %4, align 8
  call void @llvm.lifetime.start.p0(i64 8, ptr %5) #9
  %7 = load ptr, ptr %3, align 8
  %8 = getelementptr inbounds nuw %struct.HashState, ptr %7, i32 0, i32 0
  %9 = getelementptr inbounds nuw %struct.PlanState, ptr %8, i32 0, i32 5
  %10 = load ptr, ptr %9, align 8
  %11 = icmp ne ptr %10, null
  br i1 %11, label %12, label %17

12:                                               ; preds = %2
  %13 = load ptr, ptr %4, align 8
  %14 = getelementptr inbounds nuw %struct.ParallelContext, ptr %13, i32 0, i32 2
  %15 = load i32, ptr %14, align 4
  %16 = icmp eq i32 %15, 0
  br i1 %16, label %17, label %18

17:                                               ; preds = %12, %2
  store i32 1, ptr %6, align 4
  br label %56

18:                                               ; preds = %12
  %19 = load ptr, ptr %4, align 8
  %20 = getelementptr inbounds nuw %struct.ParallelContext, ptr %19, i32 0, i32 2
  %21 = load i32, ptr %20, align 4
  %22 = sext i32 %21 to i64
  %23 = mul i64 %22, 24
  %24 = add i64 8, %23
  store i64 %24, ptr %5, align 8
  %25 = load ptr, ptr %4, align 8
  %26 = getelementptr inbounds nuw %struct.ParallelContext, ptr %25, i32 0, i32 11
  %27 = load ptr, ptr %26, align 8
  %28 = load i64, ptr %5, align 8
  %29 = call ptr @shm_toc_allocate(ptr noundef %27, i64 noundef %28)
  %30 = load ptr, ptr %3, align 8
  %31 = getelementptr inbounds nuw %struct.HashState, ptr %30, i32 0, i32 5
  store ptr %29, ptr %31, align 8
  %32 = load ptr, ptr %3, align 8
  %33 = getelementptr inbounds nuw %struct.HashState, ptr %32, i32 0, i32 5
  %34 = load ptr, ptr %33, align 8
  %35 = load i64, ptr %5, align 8
  call void @llvm.memset.p0.i64(ptr align 8 %34, i8 0, i64 %35, i1 false)
  %36 = load ptr, ptr %4, align 8
  %37 = getelementptr inbounds nuw %struct.ParallelContext, ptr %36, i32 0, i32 2
  %38 = load i32, ptr %37, align 4
  %39 = load ptr, ptr %3, align 8
  %40 = getelementptr inbounds nuw %struct.HashState, ptr %39, i32 0, i32 5
  %41 = load ptr, ptr %40, align 8
  %42 = getelementptr inbounds nuw %struct.SharedHashInfo, ptr %41, i32 0, i32 0
  store i32 %38, ptr %42, align 8
  %43 = load ptr, ptr %4, align 8
  %44 = getelementptr inbounds nuw %struct.ParallelContext, ptr %43, i32 0, i32 11
  %45 = load ptr, ptr %44, align 8
  %46 = load ptr, ptr %3, align 8
  %47 = getelementptr inbounds nuw %struct.HashState, ptr %46, i32 0, i32 0
  %48 = getelementptr inbounds nuw %struct.PlanState, ptr %47, i32 0, i32 1
  %49 = load ptr, ptr %48, align 8
  %50 = getelementptr inbounds nuw %struct.Plan, ptr %49, i32 0, i32 9
  %51 = load i32, ptr %50, align 8
  %52 = sext i32 %51 to i64
  %53 = load ptr, ptr %3, align 8
  %54 = getelementptr inbounds nuw %struct.HashState, ptr %53, i32 0, i32 5
  %55 = load ptr, ptr %54, align 8
  call void @shm_toc_insert(ptr noundef %45, i64 noundef %52, ptr noundef %55)
  store i32 0, ptr %6, align 4
  br label %56

56:                                               ; preds = %18, %17
  call void @llvm.lifetime.end.p0(i64 8, ptr %5) #9
  %57 = load i32, ptr %6, align 4
  switch i32 %57, label %59 [
    i32 0, label %58
    i32 1, label %58
  ]

58:                                               ; preds = %56, %56
  ret void

59:                                               ; preds = %56
  unreachable
}